; Function Attrs: nounwind uwtable
define hidden void @_glfwSetWindowAspectRatioNull(ptr noundef %0, i32 noundef %1, i32 noundef %2) local_unnamed_addr #0 {
  %4 = getelementptr inbounds nuw i8, ptr %0, i64 3376
  %5 = load i32, ptr %4, align 8, !tbaa !62
  %6 = getelementptr inbounds nuw i8, ptr %0, i64 3380
  %7 = load i32, ptr %6, align 4, !tbaa !63
  %8 = getelementptr inbounds nuw i8, ptr %0, i64 120
  %9 = load i32, ptr %8, align 8, !tbaa !165
  %.not.i = icmp eq i32 %9, -1
  br i1 %.not.i, label %20, label %10

10:                                               ; preds = %3
  %11 = getelementptr inbounds nuw i8, ptr %0, i64 124
  %12 = load i32, ptr %11, align 4, !tbaa !166
  %.not28.i = icmp eq i32 %12, -1
  br i1 %.not28.i, label %20, label %13

13:                                               ; preds = %10
  %14 = sitofp i32 %9 to float
  %15 = sitofp i32 %12 to float
  %16 = fdiv float %14, %15
  %17 = sitofp i32 %5 to float
  %18 = fdiv float %17, %16
  %19 = fptosi float %18 to i32
  br label %20

20:                                               ; preds = %13, %10, %3
  %.0 = phi i32 [ %7, %3 ], [ %7, %10 ], [ %19, %13 ]
  %21 = getelementptr inbounds nuw i8, ptr %0, i64 104
  %22 = load i32, ptr %21, align 8, !tbaa !167
  %.not29.i = icmp eq i32 %22, -1
  br i1 %.not29.i, label %25, label %23

23:                                               ; preds = %20
  %24 = tail call i32 @_glfw_max(i32 noundef %5, i32 noundef %22) #11
  br label %.sink.split.i

25:                                               ; preds = %20
  %26 = getelementptr inbounds nuw i8, ptr %0, i64 112
  %27 = load i32, ptr %26, align 8, !tbaa !168
  %.not30.i = icmp eq i32 %27, -1
  br i1 %.not30.i, label %.sink.split.i, label %28

28:                                               ; preds = %25
  %29 = tail call i32 @_glfw_min(i32 noundef %5, i32 noundef %27) #11
  br label %.sink.split.i

.sink.split.i:                                    ; preds = %23, %28, %25
  %.011 = phi i32 [ %5, %25 ], [ %29, %28 ], [ %24, %23 ]
  %30 = getelementptr inbounds nuw i8, ptr %0, i64 108
  %31 = load i32, ptr %30, align 4, !tbaa !169
  %.not31.i = icmp eq i32 %31, -1
  br i1 %.not31.i, label %34, label %32

32:                                               ; preds = %.sink.split.i
  %33 = tail call i32 @_glfw_min(i32 noundef %.0, i32 noundef %31) #11
  br label %applySizeLimits.exit

34:                                               ; preds = %.sink.split.i
  %35 = getelementptr inbounds nuw i8, ptr %0, i64 116
  %36 = load i32, ptr %35, align 4, !tbaa !170
  %.not32.i = icmp eq i32 %36, -1
  br i1 %.not32.i, label %applySizeLimits.exit, label %37

37:                                               ; preds = %34
  %38 = tail call i32 @_glfw_max(i32 noundef %.0, i32 noundef %36) #11
  br label %applySizeLimits.exit

applySizeLimits.exit:                             ; preds = %32, %37, %34
  %.1 = phi i32 [ %.0, %34 ], [ %38, %37 ], [ %33, %32 ]
  %39 = getelementptr inbounds nuw i8, ptr %0, i64 80
  %40 = load ptr, ptr %39, align 8, !tbaa !3
  %.not.i4 = icmp eq ptr %40, null
  br i1 %.not.i4, label %41, label %_glfwSetWindowSizeNull.exit

41:                                               ; preds = %applySizeLimits.exit
  %42 = load i32, ptr %4, align 8, !tbaa !62
  %.not15.i = icmp eq i32 %42, %.011
  br i1 %.not15.i, label %43, label %45

43:                                               ; preds = %41
  %44 = load i32, ptr %6, align 4, !tbaa !63
  %.not16.i = icmp eq i32 %44, %.1
  br i1 %.not16.i, label %_glfwSetWindowSizeNull.exit, label %45

45:                                               ; preds = %43, %41
  store i32 %.011, ptr %4, align 8, !tbaa !62
  store i32 %.1, ptr %6, align 4, !tbaa !63
  tail call void @_glfwInputFramebufferSize(ptr noundef nonnull %0, i32 noundef %.011, i32 noundef %.1) #11
  tail call void @_glfwInputWindowDamage(ptr noundef nonnull %0) #11
  tail call void @_glfwInputWindowSize(ptr noundef nonnull %0, i32 noundef %.011, i32 noundef %.1) #11
  br label %_glfwSetWindowSizeNull.exit

_glfwSetWindowSizeNull.exit:                      ; preds = %applySizeLimits.exit, %43, %45
  ret void
}